; Function Attrs: mustprogress nofree norecurse nosync nounwind willreturn memory(read, inaccessiblemem: none) uwtable
define dso_local noundef zeroext i1 @_ZNK9Statement10is_1st_stmEv(ptr noundef nonnull readonly align 8 dereferenceable(32) %0) local_unnamed_addr #7 align 2 {
  %2 = getelementptr inbounds i8, ptr %0, i64 24
  %3 = load ptr, ptr %2, align 8
  %.not = icmp eq ptr %3, null
  br i1 %.not, label %12, label %4

4:                                                ; preds = %1
  %5 = getelementptr inbounds i8, ptr %3, i64 32
  %6 = getelementptr inbounds i8, ptr %3, i64 40
  %7 = load ptr, ptr %6, align 8
  %8 = load ptr, ptr %5, align 8
  %.not1 = icmp eq ptr %7, %8
  br i1 %.not1, label %12, label %9

9:                                                ; preds = %4
  %10 = load ptr, ptr %8, align 8
  %11 = icmp eq ptr %10, %0
  br label %12

12:                                               ; preds = %9, %4, %1
  %13 = phi i1 [ false, %4 ], [ false, %1 ], [ %11, %9 ]
  ret i1 %13
}